target datalayout = "e-m:e-p270:32:32-p271:32:32-p272:64:64-i64:64-i128:128-f80:128-n8:16:32:64-S128"
target triple = "x86_64-pc-linux-gnu"

@current_base = internal global ptr null, align 8

; Function Attrs: nounwind uwtable
define i32 @evdns_init() #0 {
  %1 = alloca i32, align 4
  %2 = alloca ptr, align 8
  %3 = alloca i32, align 4
  call void @llvm.lifetime.start.p0(i64 8, ptr %2) #10
  %4 = call ptr @evdns_base_new(ptr noundef null, i32 noundef 1)
  store ptr %4, ptr %2, align 8
  %5 = load ptr, ptr %2, align 8
  %6 = icmp ne ptr %5, null
  br i1 %6, label %7, label %9

7:                                                ; preds = %0
  %8 = load ptr, ptr %2, align 8
  store ptr %8, ptr @current_base, align 8
  store i32 0, ptr %1, align 4
  store i32 1, ptr %3, align 4
  br label %10

9:                                                ; preds = %0
  store i32 -1, ptr %1, align 4
  store i32 1, ptr %3, align 4
  br label %10

10:                                               ; preds = %9, %7
  call void @llvm.lifetime.end.p0(i64 8, ptr %2) #10
  %11 = load i32, ptr %1, align 4
  ret i32 %11
}