; Function Attrs: nounwind uwtable
define range(i32 -1, 1) i32 @evdns_init() local_unnamed_addr #2 {
  %1 = tail call ptr @evdns_base_new(ptr noundef null, i32 noundef 1)
  %.not = icmp eq ptr %1, null
  br i1 %.not, label %3, label %2

2:                                                ; preds = %0
  store ptr %1, ptr @current_base, align 8
  br label %3

3:                                                ; preds = %0, %2
  %.0 = phi i32 [ 0, %2 ], [ -1, %0 ]
  ret i32 %.0
}